(dp1
S'name'
p2
S'CHAR(512)'
p3
sS'url'
p4
S'CHAR(512)'
p5
sS'created_by'
p6
S'CHAR(512)'
p7
sS'phone'
p8
S'CHAR(512)'
p9
sS'created_on'
p10
S'TIMESTAMP'
p11
sS'address'
p12
S'CHAR(512)'
p13
sS'id'
p14
S'INTEGER PRIMARY KEY AUTOINCREMENT'
p15
s.