(dp1
S'organization'
p2
S'REFERENCES organization(id) ON DELETE CASCADE'
p3
sS'created_on'
p4
S'TIMESTAMP'
p5
sS'id'
p6
S'INTEGER PRIMARY KEY AUTOINCREMENT'
p7
sS'created_by'
p8
S'CHAR(512)'
p9
sS'title'
p10
S'CHAR(512)'
p11
s.