(dp1
S'name'
p2
S'CHAR(512)'
p3
sS'pledgedrive'
p4
S'REFERENCES pledgedrive(id) ON DELETE CASCADE'
p5
sS'created_by'
p6
S'CHAR(512)'
p7
sS'person'
p8
S'REFERENCES person(id) ON DELETE CASCADE'
p9
sS'amount'
p10
S'INTEGER'
p11
sS'program'
p12
S'REFERENCES program(id) ON DELETE CASCADE'
p13
sS'created_on'
p14
S'TIMESTAMP'
p15
sS'organization'
p16
S'REFERENCES organization(id) ON DELETE CASCADE'
p17
sS'id'
p18
S'INTEGER PRIMARY KEY AUTOINCREMENT'
p19
s.