(dp1
S'description'
p2
S'TEXT'
p3
sS'title'
p4
S'CHAR(512)'
p5
sS'start_time'
p6
S'TIMESTAMP'
p7
sS'created_by'
p8
S'CHAR(512)'
p9
sS'created_on'
p10
S'TIMESTAMP'
p11
sS'end_time'
p12
S'TIMESTAMP'
p13
sS'organization'
p14
S'REFERENCES organization(id) ON DELETE CASCADE'
p15
sS'segment'
p16
S'REFERENCES segment(id) ON DELETE CASCADE'
p17
sS'id'
p18
S'INTEGER PRIMARY KEY AUTOINCREMENT'
p19
s.